target datalayout = "e-m:e-p270:32:32-p271:32:32-p272:64:64-i64:64-i128:128-f80:128-n8:16:32:64-S128"
target triple = "x86_64-pc-linux-gnu"

@.str.13 = private unnamed_addr constant [11 x i8] c"__tostring\00", align 1
@.str.14 = private unnamed_addr constant [29 x i8] c"(error object is a %s value)\00", align 1

; Function Attrs: nounwind uwtable
define internal i32 @msghandler(ptr noundef %0) #0 {
  %2 = alloca i32, align 4
  %3 = alloca ptr, align 8
  %4 = alloca ptr, align 8
  %5 = alloca i32, align 4
  store ptr %0, ptr %3, align 8, !tbaa !11
  call void @llvm.lifetime.start.p0(i64 8, ptr %4) #5
  %6 = load ptr, ptr %3, align 8, !tbaa !11
  %7 = call ptr @lua_tolstring(ptr noundef %6, i32 noundef 1, ptr noundef null)
  store ptr %7, ptr %4, align 8, !tbaa !13
  %8 = load ptr, ptr %4, align 8, !tbaa !13
  %9 = icmp eq ptr %8, null
  br i1 %9, label %10, label %27

10:                                               ; preds = %1
  %11 = load ptr, ptr %3, align 8, !tbaa !11
  %12 = call i32 @luaL_callmeta(ptr noundef %11, i32 noundef 1, ptr noundef @.str.13)
  %13 = icmp ne i32 %12, 0
  br i1 %13, label %14, label %19

14:                                               ; preds = %10
  %15 = load ptr, ptr %3, align 8, !tbaa !11
  %16 = call i32 @lua_type(ptr noundef %15, i32 noundef -1)
  %17 = icmp eq i32 %16, 4
  br i1 %17, label %18, label %19

18:                                               ; preds = %14
  store i32 1, ptr %2, align 4
  store i32 1, ptr %5, align 4
  br label %31

19:                                               ; preds = %14, %10
  %20 = load ptr, ptr %3, align 8, !tbaa !11
  %21 = load ptr, ptr %3, align 8, !tbaa !11
  %22 = load ptr, ptr %3, align 8, !tbaa !11
  %23 = call i32 @lua_type(ptr noundef %22, i32 noundef 1)
  %24 = call ptr @lua_typename(ptr noundef %21, i32 noundef %23)
  %25 = call ptr (ptr, ptr, ...) @lua_pushfstring(ptr noundef %20, ptr noundef @.str.14, ptr noundef %24)
  store ptr %25, ptr %4, align 8, !tbaa !13
  br label %26

26:                                               ; preds = %19
  br label %27

27:                                               ; preds = %26, %1
  %28 = load ptr, ptr %3, align 8, !tbaa !11
  %29 = load ptr, ptr %3, align 8, !tbaa !11
  %30 = load ptr, ptr %4, align 8, !tbaa !13
  call void @luaL_traceback(ptr noundef %28, ptr noundef %29, ptr noundef %30, i32 noundef 1)
  store i32 1, ptr %2, align 4
  store i32 1, ptr %5, align 4
  br label %31

31:                                               ; preds = %27, %18
  call void @llvm.lifetime.end.p0(i64 8, ptr %4) #5
  %32 = load i32, ptr %2, align 4
  ret i32 %32
}