; Function Attrs: nounwind uwtable
define internal noundef i32 @msghandler(ptr noundef %0) #0 {
  %2 = tail call ptr @lua_tolstring(ptr noundef %0, i32 noundef 1, ptr noundef null) #10
  %3 = icmp eq ptr %2, null
  br i1 %3, label %4, label %13

4:                                                ; preds = %1
  %5 = tail call i32 @luaL_callmeta(ptr noundef %0, i32 noundef 1, ptr noundef nonnull @.str.13) #10
  %.not = icmp eq i32 %5, 0
  br i1 %.not, label %9, label %6

6:                                                ; preds = %4
  %7 = tail call i32 @lua_type(ptr noundef %0, i32 noundef -1) #10
  %8 = icmp eq i32 %7, 4
  br i1 %8, label %14, label %9

9:                                                ; preds = %6, %4
  %10 = tail call i32 @lua_type(ptr noundef %0, i32 noundef 1) #10
  %11 = tail call ptr @lua_typename(ptr noundef %0, i32 noundef %10) #10
  %12 = tail call ptr (ptr, ptr, ...) @lua_pushfstring(ptr noundef %0, ptr noundef nonnull @.str.14, ptr noundef %11) #10
  br label %13

13:                                               ; preds = %9, %1
  %.0 = phi ptr [ %12, %9 ], [ %2, %1 ]
  tail call void @luaL_traceback(ptr noundef %0, ptr noundef %0, ptr noundef %.0, i32 noundef 1) #10
  br label %14

14:                                               ; preds = %6, %13
  ret i32 1
}